target datalayout = "e-m:e-p270:32:32-p271:32:32-p272:64:64-i64:64-i128:128-f80:128-n8:16:32:64-S128"
target triple = "x86_64-pc-linux-gnu"

%struct.blake2sp_state = type { [8 x %struct.blake2s_state], %struct.blake2s_state, [512 x i8], i64 }
%struct.blake2s_state = type <{ [240 x i8], ptr, ptr, ptr, ptr, i64, i8, [7 x i8] }>

; Function Attrs: inlinehint mustprogress nounwind uwtable
define internal void @_ZL25blake2s_increment_counterP13blake2s_statej(ptr noundef %0, i32 noundef %1) #5 {
  %3 = alloca ptr, align 8
  %4 = alloca i32, align 4
  store ptr %0, ptr %3, align 8, !tbaa !20
  store i32 %1, ptr %4, align 4, !tbaa !14
  %5 = load i32, ptr %4, align 4, !tbaa !14
  %6 = load ptr, ptr %3, align 8, !tbaa !20
  %7 = getelementptr inbounds nuw %struct.blake2s_state, ptr %6, i32 0, i32 3
  %8 = load ptr, ptr %7, align 8, !tbaa !42
  %9 = getelementptr inbounds i32, ptr %8, i64 0
  %10 = load i32, ptr %9, align 4, !tbaa !14
  %11 = add i32 %10, %5
  store i32 %11, ptr %9, align 4, !tbaa !14
  %12 = load ptr, ptr %3, align 8, !tbaa !20
  %13 = getelementptr inbounds nuw %struct.blake2s_state, ptr %12, i32 0, i32 3
  %14 = load ptr, ptr %13, align 8, !tbaa !42
  %15 = getelementptr inbounds i32, ptr %14, i64 0
  %16 = load i32, ptr %15, align 4, !tbaa !14
  %17 = load i32, ptr %4, align 4, !tbaa !14
  %18 = icmp ult i32 %16, %17
  %19 = zext i1 %18 to i32
  %20 = load ptr, ptr %3, align 8, !tbaa !20
  %21 = getelementptr inbounds nuw %struct.blake2s_state, ptr %20, i32 0, i32 3
  %22 = load ptr, ptr %21, align 8, !tbaa !42
  %23 = getelementptr inbounds i32, ptr %22, i64 1
  %24 = load i32, ptr %23, align 4, !tbaa !14
  %25 = add i32 %24, %19
  store i32 %25, ptr %23, align 4, !tbaa !14
  ret void
}

; Function Attrs: mustprogress uwtable
define internal void @_ZL14blake2s_updateP13blake2s_statePKhm(ptr noundef %0, ptr noundef %1, i64 noundef %2) #0 {
  %4 = alloca ptr, align 8
  %5 = alloca ptr, align 8
  %6 = alloca i64, align 8
  %7 = alloca i64, align 8
  %8 = alloca i64, align 8
  store ptr %0, ptr %4, align 8, !tbaa !20
  store ptr %1, ptr %5, align 8, !tbaa !30
  store i64 %2, ptr %6, align 8, !tbaa !28
  br label %9

9:                                                ; preds = %72, %3
  %10 = load i64, ptr %6, align 8, !tbaa !28
  %11 = icmp ugt i64 %10, 0
  br i1 %11, label %12, label %73

12:                                               ; preds = %9
  call void @llvm.lifetime.start.p0(i64 8, ptr %7) #7
  %13 = load ptr, ptr %4, align 8, !tbaa !20
  %14 = getelementptr inbounds nuw %struct.blake2s_state, ptr %13, i32 0, i32 5
  %15 = load i64, ptr %14, align 8, !tbaa !33
  store i64 %15, ptr %7, align 8, !tbaa !28
  call void @llvm.lifetime.start.p0(i64 8, ptr %8) #7
  %16 = load i64, ptr %7, align 8, !tbaa !28
  %17 = sub i64 128, %16
  store i64 %17, ptr %8, align 8, !tbaa !28
  %18 = load i64, ptr %6, align 8, !tbaa !28
  %19 = load i64, ptr %8, align 8, !tbaa !28
  %20 = icmp ugt i64 %18, %19
  br i1 %20, label %21, label %56

21:                                               ; preds = %12
  %22 = load ptr, ptr %4, align 8, !tbaa !20
  %23 = getelementptr inbounds nuw %struct.blake2s_state, ptr %22, i32 0, i32 1
  %24 = load ptr, ptr %23, align 8, !tbaa !34
  %25 = load i64, ptr %7, align 8, !tbaa !28
  %26 = getelementptr inbounds nuw i8, ptr %24, i64 %25
  %27 = load ptr, ptr %5, align 8, !tbaa !30
  %28 = load i64, ptr %8, align 8, !tbaa !28
  call void @llvm.memcpy.p0.p0.i64(ptr align 1 %26, ptr align 1 %27, i64 %28, i1 false)
  %29 = load i64, ptr %8, align 8, !tbaa !28
  %30 = load ptr, ptr %4, align 8, !tbaa !20
  %31 = getelementptr inbounds nuw %struct.blake2s_state, ptr %30, i32 0, i32 5
  %32 = load i64, ptr %31, align 8, !tbaa !33
  %33 = add i64 %32, %29
  store i64 %33, ptr %31, align 8, !tbaa !33
  %34 = load ptr, ptr %4, align 8, !tbaa !20
  call void @_ZL25blake2s_increment_counterP13blake2s_statej(ptr noundef %34, i32 noundef 64)
  %35 = load ptr, ptr %4, align 8, !tbaa !20
  %36 = load ptr, ptr %4, align 8, !tbaa !20
  %37 = getelementptr inbounds nuw %struct.blake2s_state, ptr %36, i32 0, i32 1
  %38 = load ptr, ptr %37, align 8, !tbaa !34
  call void @_ZL16blake2s_compressP13blake2s_statePKh(ptr noundef %35, ptr noundef %38)
  %39 = load ptr, ptr %4, align 8, !tbaa !20
  %40 = getelementptr inbounds nuw %struct.blake2s_state, ptr %39, i32 0, i32 1
  %41 = load ptr, ptr %40, align 8, !tbaa !34
  %42 = load ptr, ptr %4, align 8, !tbaa !20
  %43 = getelementptr inbounds nuw %struct.blake2s_state, ptr %42, i32 0, i32 1
  %44 = load ptr, ptr %43, align 8, !tbaa !34
  %45 = getelementptr inbounds i8, ptr %44, i64 64
  call void @llvm.memcpy.p0.p0.i64(ptr align 1 %41, ptr align 1 %45, i64 64, i1 false)
  %46 = load ptr, ptr %4, align 8, !tbaa !20
  %47 = getelementptr inbounds nuw %struct.blake2s_state, ptr %46, i32 0, i32 5
  %48 = load i64, ptr %47, align 8, !tbaa !33
  %49 = sub i64 %48, 64
  store i64 %49, ptr %47, align 8, !tbaa !33
  %50 = load i64, ptr %8, align 8, !tbaa !28
  %51 = load ptr, ptr %5, align 8, !tbaa !30
  %52 = getelementptr inbounds nuw i8, ptr %51, i64 %50
  store ptr %52, ptr %5, align 8, !tbaa !30
  %53 = load i64, ptr %8, align 8, !tbaa !28
  %54 = load i64, ptr %6, align 8, !tbaa !28
  %55 = sub i64 %54, %53
  store i64 %55, ptr %6, align 8, !tbaa !28
  br label %72

56:                                               ; preds = %12
  %57 = load ptr, ptr %4, align 8, !tbaa !20
  %58 = getelementptr inbounds nuw %struct.blake2s_state, ptr %57, i32 0, i32 1
  %59 = load ptr, ptr %58, align 8, !tbaa !34
  %60 = load i64, ptr %7, align 8, !tbaa !28
  %61 = getelementptr inbounds nuw i8, ptr %59, i64 %60
  %62 = load ptr, ptr %5, align 8, !tbaa !30
  %63 = load i64, ptr %6, align 8, !tbaa !28
  call void @llvm.memcpy.p0.p0.i64(ptr align 1 %61, ptr align 1 %62, i64 %63, i1 false)
  %64 = load i64, ptr %6, align 8, !tbaa !28
  %65 = load ptr, ptr %4, align 8, !tbaa !20
  %66 = getelementptr inbounds nuw %struct.blake2s_state, ptr %65, i32 0, i32 5
  %67 = load i64, ptr %66, align 8, !tbaa !33
  %68 = add i64 %67, %64
  store i64 %68, ptr %66, align 8, !tbaa !33
  %69 = load i64, ptr %6, align 8, !tbaa !28
  %70 = load ptr, ptr %5, align 8, !tbaa !30
  %71 = getelementptr inbounds nuw i8, ptr %70, i64 %69
  store ptr %71, ptr %5, align 8, !tbaa !30
  store i64 0, ptr %6, align 8, !tbaa !28
  br label %72

72:                                               ; preds = %56, %21
  call void @llvm.lifetime.end.p0(i64 8, ptr %8) #7
  call void @llvm.lifetime.end.p0(i64 8, ptr %7) #7
  br label %9, !llvm.loop !35

73:                                               ; preds = %9
  ret void
}

; Function Attrs: mustprogress uwtable
define void @_Z14blake2sp_finalP14blake2sp_statePh(ptr noundef %0, ptr noundef %1) #0 {
  %3 = alloca ptr, align 8
  %4 = alloca ptr, align 8
  %5 = alloca [8 x [32 x i8]], align 16
  %6 = alloca i64, align 8
  %7 = alloca i64, align 8
  %8 = alloca i64, align 8
  store ptr %0, ptr %3, align 8, !tbaa !3
  store ptr %1, ptr %4, align 8, !tbaa !30
  call void @llvm.lifetime.start.p0(i64 256, ptr %5) #7
  call void @llvm.lifetime.start.p0(i64 8, ptr %6) #7
  store i64 0, ptr %6, align 8, !tbaa !28
  br label %9

9:                                                ; preds = %50, %2
  %10 = load i64, ptr %6, align 8, !tbaa !28
  %11 = icmp ult i64 %10, 8
  br i1 %11, label %13, label %12

12:                                               ; preds = %9
  call void @llvm.lifetime.end.p0(i64 8, ptr %6) #7
  br label %53

13:                                               ; preds = %9
  %14 = load ptr, ptr %3, align 8, !tbaa !3
  %15 = getelementptr inbounds nuw %struct.blake2sp_state, ptr %14, i32 0, i32 3
  %16 = load i64, ptr %15, align 8, !tbaa !8
  %17 = load i64, ptr %6, align 8, !tbaa !28
  %18 = mul i64 %17, 64
  %19 = icmp ugt i64 %16, %18
  br i1 %19, label %20, label %42

20:                                               ; preds = %13
  call void @llvm.lifetime.start.p0(i64 8, ptr %7) #7
  %21 = load ptr, ptr %3, align 8, !tbaa !3
  %22 = getelementptr inbounds nuw %struct.blake2sp_state, ptr %21, i32 0, i32 3
  %23 = load i64, ptr %22, align 8, !tbaa !8
  %24 = load i64, ptr %6, align 8, !tbaa !28
  %25 = mul i64 %24, 64
  %26 = sub i64 %23, %25
  store i64 %26, ptr %7, align 8, !tbaa !28
  %27 = load i64, ptr %7, align 8, !tbaa !28
  %28 = icmp ugt i64 %27, 64
  br i1 %28, label %29, label %30

29:                                               ; preds = %20
  store i64 64, ptr %7, align 8, !tbaa !28
  br label %30

30:                                               ; preds = %29, %20
  %31 = load ptr, ptr %3, align 8, !tbaa !3
  %32 = getelementptr inbounds nuw %struct.blake2sp_state, ptr %31, i32 0, i32 0
  %33 = load i64, ptr %6, align 8, !tbaa !28
  %34 = getelementptr inbounds nuw [8 x %struct.blake2s_state], ptr %32, i64 0, i64 %33
  %35 = load ptr, ptr %3, align 8, !tbaa !3
  %36 = getelementptr inbounds nuw %struct.blake2sp_state, ptr %35, i32 0, i32 2
  %37 = getelementptr inbounds [512 x i8], ptr %36, i64 0, i64 0
  %38 = load i64, ptr %6, align 8, !tbaa !28
  %39 = mul i64 %38, 64
  %40 = getelementptr inbounds nuw i8, ptr %37, i64 %39
  %41 = load i64, ptr %7, align 8, !tbaa !28
  call void @_ZL14blake2s_updateP13blake2s_statePKhm(ptr noundef %34, ptr noundef %40, i64 noundef %41)
  call void @llvm.lifetime.end.p0(i64 8, ptr %7) #7
  br label %42

42:                                               ; preds = %30, %13
  %43 = load ptr, ptr %3, align 8, !tbaa !3
  %44 = getelementptr inbounds nuw %struct.blake2sp_state, ptr %43, i32 0, i32 0
  %45 = load i64, ptr %6, align 8, !tbaa !28
  %46 = getelementptr inbounds nuw [8 x %struct.blake2s_state], ptr %44, i64 0, i64 %45
  %47 = load i64, ptr %6, align 8, !tbaa !28
  %48 = getelementptr inbounds nuw [8 x [32 x i8]], ptr %5, i64 0, i64 %47
  %49 = getelementptr inbounds [32 x i8], ptr %48, i64 0, i64 0
  call void @_ZL13blake2s_finalP13blake2s_statePh(ptr noundef %46, ptr noundef %49)
  br label %50

50:                                               ; preds = %42
  %51 = load i64, ptr %6, align 8, !tbaa !28
  %52 = add i64 %51, 1
  store i64 %52, ptr %6, align 8, !tbaa !28
  br label %9, !llvm.loop !39

53:                                               ; preds = %12
  call void @llvm.lifetime.start.p0(i64 8, ptr %8) #7
  store i64 0, ptr %8, align 8, !tbaa !28
  br label %54

54:                                               ; preds = %64, %53
  %55 = load i64, ptr %8, align 8, !tbaa !28
  %56 = icmp ult i64 %55, 8
  br i1 %56, label %58, label %57

57:                                               ; preds = %54
  call void @llvm.lifetime.end.p0(i64 8, ptr %8) #7
  br label %67

58:                                               ; preds = %54
  %59 = load ptr, ptr %3, align 8, !tbaa !3
  %60 = getelementptr inbounds nuw %struct.blake2sp_state, ptr %59, i32 0, i32 1
  %61 = load i64, ptr %8, align 8, !tbaa !28
  %62 = getelementptr inbounds nuw [8 x [32 x i8]], ptr %5, i64 0, i64 %61
  %63 = getelementptr inbounds [32 x i8], ptr %62, i64 0, i64 0
  call void @_ZL14blake2s_updateP13blake2s_statePKhm(ptr noundef %60, ptr noundef %63, i64 noundef 32)
  br label %64

64:                                               ; preds = %58
  %65 = load i64, ptr %8, align 8, !tbaa !28
  %66 = add i64 %65, 1
  store i64 %66, ptr %8, align 8, !tbaa !28
  br label %54, !llvm.loop !40

67:                                               ; preds = %57
  %68 = load ptr, ptr %3, align 8, !tbaa !3
  %69 = getelementptr inbounds nuw %struct.blake2sp_state, ptr %68, i32 0, i32 1
  %70 = load ptr, ptr %4, align 8, !tbaa !30
  call void @_ZL13blake2s_finalP13blake2s_statePh(ptr noundef %69, ptr noundef %70)
  call void @llvm.lifetime.end.p0(i64 256, ptr %5) #7
  ret void
}