; Function Attrs: mustprogress nofree norecurse nosync nounwind memory(readwrite, inaccessiblemem: none) uwtable
define void @_Z14blake2sp_finalP14blake2sp_statePh(ptr noundef captures(none) %0, ptr noundef writeonly captures(none) %1) local_unnamed_addr #0 {
  %3 = alloca [8 x [32 x i8]], align 16
  call void @llvm.lifetime.start.p0(i64 256, ptr nonnull %3) #5
  %4 = getelementptr inbounds nuw i8, ptr %0, i64 3104
  %5 = getelementptr inbounds nuw i8, ptr %0, i64 2592
  br label %10

.preheader:                                       ; preds = %_ZL14blake2s_updateP13blake2s_statePKhm.exit
  %6 = getelementptr inbounds nuw i8, ptr %0, i64 2304
  %7 = getelementptr inbounds nuw i8, ptr %0, i64 2576
  %8 = getelementptr inbounds nuw i8, ptr %0, i64 2544
  %9 = getelementptr i8, ptr %0, i64 2560
  %.pre.i24.pre = load i64, ptr %7, align 8, !tbaa !3
  br label %.split

10:                                               ; preds = %2, %_ZL14blake2s_updateP13blake2s_statePKhm.exit
  %.02043 = phi i64 [ 0, %2 ], [ %49, %_ZL14blake2s_updateP13blake2s_statePKhm.exit ]
  %11 = load i64, ptr %4, align 8, !tbaa !27
  %12 = shl nuw nsw i64 %.02043, 6
  %13 = icmp ugt i64 %11, %12
  br i1 %13, label %.lr.ph.i, label %_ZL14blake2s_updateP13blake2s_statePKhm.exit

.lr.ph.i:                                         ; preds = %10
  %14 = getelementptr inbounds nuw [8 x %struct.blake2s_state], ptr %0, i64 0, i64 %.02043
  %15 = sub nuw i64 %11, %12
  %spec.store.select = tail call i64 @llvm.umin.i64(i64 %15, i64 64)
  %16 = getelementptr inbounds nuw i8, ptr %5, i64 %12
  %17 = getelementptr inbounds nuw i8, ptr %14, i64 272
  %18 = getelementptr inbounds nuw i8, ptr %14, i64 240
  %19 = getelementptr i8, ptr %14, i64 256
  %.pre.i = load i64, ptr %17, align 8, !tbaa !3
  %20 = sub i64 128, %.pre.i
  %21 = icmp ugt i64 %spec.store.select, %20
  br i1 %21, label %.lr.ph, label %.thread.i

.thread.i:                                        ; preds = %.lr.ph, %.lr.ph.i
  %.lcssa37 = phi i64 [ %.pre.i, %.lr.ph.i ], [ %43, %.lr.ph ]
  %.033.i.lcssa = phi ptr [ %16, %.lr.ph.i ], [ %.1.i, %.lr.ph ]
  %.02832.i.lcssa = phi i64 [ %spec.store.select, %.lr.ph.i ], [ %44, %.lr.ph ]
  %22 = load ptr, ptr %18, align 8, !tbaa !24
  %23 = getelementptr inbounds nuw i8, ptr %22, i64 %.lcssa37
  tail call void @llvm.memcpy.p0.p0.i64(ptr align 1 %23, ptr align 1 %.033.i.lcssa, i64 %.02832.i.lcssa, i1 false)
  %24 = load i64, ptr %17, align 8, !tbaa !3
  %25 = add i64 %24, %.02832.i.lcssa
  store i64 %25, ptr %17, align 8, !tbaa !3
  br label %_ZL14blake2s_updateP13blake2s_statePKhm.exit

.lr.ph:                                           ; preds = %.lr.ph.i, %.lr.ph
  %26 = phi i64 [ %45, %.lr.ph ], [ %20, %.lr.ph.i ]
  %.02832.i40 = phi i64 [ %44, %.lr.ph ], [ %spec.store.select, %.lr.ph.i ]
  %.033.i39 = phi ptr [ %.1.i, %.lr.ph ], [ %16, %.lr.ph.i ]
  %27 = phi i64 [ %43, %.lr.ph ], [ %.pre.i, %.lr.ph.i ]
  %28 = load ptr, ptr %18, align 8, !tbaa !24
  %29 = getelementptr inbounds nuw i8, ptr %28, i64 %27
  tail call void @llvm.memcpy.p0.p0.i64(ptr align 1 %29, ptr align 1 %.033.i39, i64 %26, i1 false)
  %30 = load i64, ptr %17, align 8, !tbaa !3
  %31 = add i64 %30, %26
  store i64 %31, ptr %17, align 8, !tbaa !3
  %.val.i = load ptr, ptr %19, align 8, !tbaa !26
  %32 = load i32, ptr %.val.i, align 4, !tbaa !12
  %33 = add i32 %32, 64
  store i32 %33, ptr %.val.i, align 4, !tbaa !12
  %34 = icmp ugt i32 %32, -65
  %35 = zext i1 %34 to i32
  %36 = getelementptr inbounds nuw i8, ptr %.val.i, i64 4
  %37 = load i32, ptr %36, align 4, !tbaa !12
  %38 = add i32 %37, %35
  store i32 %38, ptr %36, align 4, !tbaa !12
  %39 = load ptr, ptr %18, align 8, !tbaa !24
  tail call fastcc void @_ZL16blake2s_compressP13blake2s_statePKh(ptr noundef nonnull %14, ptr noundef %39)
  %40 = load ptr, ptr %18, align 8, !tbaa !24
  %41 = getelementptr inbounds nuw i8, ptr %40, i64 64
  tail call void @llvm.memcpy.p0.p0.i64(ptr noundef nonnull align 1 dereferenceable(64) %40, ptr noundef nonnull align 1 dereferenceable(64) %41, i64 64, i1 false)
  %42 = load i64, ptr %17, align 8, !tbaa !3
  %43 = add i64 %42, -64
  %44 = sub nuw i64 %.02832.i40, %26
  store i64 %43, ptr %17, align 8, !tbaa !3
  %.1.i = getelementptr inbounds nuw i8, ptr %.033.i39, i64 %26
  %45 = sub i64 192, %42
  %46 = icmp ugt i64 %44, %45
  br i1 %46, label %.lr.ph, label %.thread.i

_ZL14blake2s_updateP13blake2s_statePKhm.exit:     ; preds = %.thread.i, %10
  %47 = getelementptr inbounds nuw [8 x %struct.blake2s_state], ptr %0, i64 0, i64 %.02043
  %48 = getelementptr inbounds nuw [8 x [32 x i8]], ptr %3, i64 0, i64 %.02043
  call fastcc void @_ZL13blake2s_finalP13blake2s_statePh(ptr noundef %47, ptr noundef nonnull %48)
  %49 = add nuw nsw i64 %.02043, 1
  %exitcond.not = icmp eq i64 %49, 8
  br i1 %exitcond.not, label %.preheader, label %10, !llvm.loop !30

50:                                               ; preds = %.thread.i27
  tail call fastcc void @_ZL13blake2s_finalP13blake2s_statePh(ptr noundef nonnull %6, ptr noundef %1)
  call void @llvm.lifetime.end.p0(i64 256, ptr nonnull %3) #5
  ret void

.split:                                           ; preds = %.preheader, %.thread.i27
  %.pre.i24 = phi i64 [ %.pre.i24.pre, %.preheader ], [ %57, %.thread.i27 ]
  %.050 = phi i64 [ 0, %.preheader ], [ %58, %.thread.i27 ]
  %51 = getelementptr inbounds nuw [8 x [32 x i8]], ptr %3, i64 0, i64 %.050
  %52 = sub i64 128, %.pre.i24
  %53 = icmp ult i64 %52, 32
  br i1 %53, label %.lr.ph46, label %.thread.i27

.thread.i27:                                      ; preds = %.lr.ph46, %.split
  %.lcssa = phi i64 [ %.pre.i24, %.split ], [ %76, %.lr.ph46 ]
  %.033.i25.lcssa = phi ptr [ %51, %.split ], [ %.1.i29, %.lr.ph46 ]
  %.02832.i26.lcssa = phi i64 [ 32, %.split ], [ %77, %.lr.ph46 ]
  %54 = load ptr, ptr %8, align 8, !tbaa !24
  %55 = getelementptr inbounds nuw i8, ptr %54, i64 %.lcssa
  call void @llvm.memcpy.p0.p0.i64(ptr noundef nonnull align 1 dereferenceable(1) %55, ptr noundef nonnull align 1 dereferenceable(1) %.033.i25.lcssa, i64 %.02832.i26.lcssa, i1 false)
  %56 = load i64, ptr %7, align 8, !tbaa !3
  %57 = add i64 %56, %.02832.i26.lcssa
  store i64 %57, ptr %7, align 8, !tbaa !3
  %58 = add nuw nsw i64 %.050, 1
  %exitcond55.not = icmp eq i64 %58, 8
  br i1 %exitcond55.not, label %50, label %.split, !llvm.loop !31

.lr.ph46:                                         ; preds = %.split, %.lr.ph46
  %59 = phi i64 [ %78, %.lr.ph46 ], [ %52, %.split ]
  %.02832.i2645 = phi i64 [ %77, %.lr.ph46 ], [ 32, %.split ]
  %.033.i2544 = phi ptr [ %.1.i29, %.lr.ph46 ], [ %51, %.split ]
  %60 = phi i64 [ %76, %.lr.ph46 ], [ %.pre.i24, %.split ]
  %61 = load ptr, ptr %8, align 8, !tbaa !24
  %62 = getelementptr inbounds nuw i8, ptr %61, i64 %60
  call void @llvm.memcpy.p0.p0.i64(ptr align 1 %62, ptr align 1 %.033.i2544, i64 %59, i1 false)
  %63 = load i64, ptr %7, align 8, !tbaa !3
  %64 = add i64 %63, %59
  store i64 %64, ptr %7, align 8, !tbaa !3
  %.val.i28 = load ptr, ptr %9, align 8, !tbaa !26
  %65 = load i32, ptr %.val.i28, align 4, !tbaa !12
  %66 = add i32 %65, 64
  store i32 %66, ptr %.val.i28, align 4, !tbaa !12
  %67 = icmp ugt i32 %65, -65
  %68 = zext i1 %67 to i32
  %69 = getelementptr inbounds nuw i8, ptr %.val.i28, i64 4
  %70 = load i32, ptr %69, align 4, !tbaa !12
  %71 = add i32 %70, %68
  store i32 %71, ptr %69, align 4, !tbaa !12
  %72 = load ptr, ptr %8, align 8, !tbaa !24
  tail call fastcc void @_ZL16blake2s_compressP13blake2s_statePKh(ptr noundef nonnull %6, ptr noundef %72)
  %73 = load ptr, ptr %8, align 8, !tbaa !24
  %74 = getelementptr inbounds nuw i8, ptr %73, i64 64
  tail call void @llvm.memcpy.p0.p0.i64(ptr noundef nonnull align 1 dereferenceable(64) %73, ptr noundef nonnull align 1 dereferenceable(64) %74, i64 64, i1 false)
  %75 = load i64, ptr %7, align 8, !tbaa !3
  %76 = add i64 %75, -64
  %77 = sub nuw i64 %.02832.i2645, %59
  store i64 %76, ptr %7, align 8, !tbaa !3
  %.1.i29 = getelementptr inbounds nuw i8, ptr %.033.i2544, i64 %59
  %78 = sub i64 192, %75
  %79 = icmp ugt i64 %77, %78
  br i1 %79, label %.lr.ph46, label %.thread.i27
}